target datalayout = "e-m:e-p270:32:32-p271:32:32-p272:64:64-i64:64-i128:128-f80:128-n8:16:32:64-S128"
target triple = "x86_64-unknown-linux-gnu"

%"struct.node::V8Platform" = type { i8, %"class.std::unique_ptr", %"class.std::unique_ptr.2", %"class.node::tracing::AgentWriterHandle", ptr }
%"class.std::unique_ptr" = type { %"struct.std::__uniq_ptr_data" }
%"struct.std::__uniq_ptr_data" = type { %"class.std::__uniq_ptr_impl" }
%"class.std::__uniq_ptr_impl" = type { %"class.std::tuple" }
%"class.std::tuple" = type { %"struct.std::_Tuple_impl" }
%"struct.std::_Tuple_impl" = type { %"struct.std::_Head_base.1" }
%"struct.std::_Head_base.1" = type { ptr }
%"class.std::unique_ptr.2" = type { %"struct.std::__uniq_ptr_data.3" }
%"struct.std::__uniq_ptr_data.3" = type { %"class.std::__uniq_ptr_impl.4" }
%"class.std::__uniq_ptr_impl.4" = type { %"class.std::tuple.5" }
%"class.std::tuple.5" = type { %"struct.std::_Tuple_impl.6" }
%"struct.std::_Tuple_impl.6" = type { %"struct.std::_Head_base.9" }
%"struct.std::_Head_base.9" = type { ptr }
%"class.node::tracing::AgentWriterHandle" = type <{ ptr, i32, [4 x i8] }>

@_ZN4node11per_process14v8_initializedE = dso_local global i8 0, align 1
@_ZN4node11per_process11v8_platformE = dso_local global %"struct.node::V8Platform" zeroinitializer, align 8
@_ZN4nodeL18init_process_flagsE = internal global { i32 } zeroinitializer, align 4

; Function Attrs: mustprogress nounwind uwtable
define linkonce_odr dso_local noundef i32 @_ZStanSt12memory_orderSt23__memory_order_modifier(i32 noundef %__m, i32 noundef %__mod) #5 comdat {
entry:
  %__m.addr = alloca i32, align 4
  %__mod.addr = alloca i32, align 4
  store i32 %__m, ptr %__m.addr, align 4
  store i32 %__mod, ptr %__mod.addr, align 4
  %0 = load i32, ptr %__m.addr, align 4
  %1 = load i32, ptr %__mod.addr, align 4
  %and = and i32 %0, %1
  ret i32 %and
}

; Function Attrs: mustprogress nounwind uwtable
define dso_local void @_ZN4node22TearDownOncePerProcessEv() #5 {
entry:
  %this.addr.i = alloca ptr, align 8
  %__m.addr.i = alloca i32, align 4
  %__b.i = alloca i32, align 4
  %atomic-temp.i = alloca i32, align 4
  %flags = alloca i32, align 4
  store ptr @_ZN4nodeL18init_process_flagsE, ptr %this.addr.i, align 8
  store i32 5, ptr %__m.addr.i, align 4
  %this1.i = load ptr, ptr %this.addr.i, align 8
  %0 = load i32, ptr %__m.addr.i, align 4
  %call.i = call noundef i32 @_ZStanSt12memory_orderSt23__memory_order_modifier(i32 noundef %0, i32 noundef 65535)
  store i32 %call.i, ptr %__b.i, align 4
  %1 = load i32, ptr %__m.addr.i, align 4
  switch i32 %1, label %monotonic.i [
    i32 1, label %acquire.i
    i32 2, label %acquire.i
    i32 5, label %seqcst.i
  ]

monotonic.i:                                      ; preds = %entry
  %2 = load atomic i32, ptr %this1.i monotonic, align 4
  store i32 %2, ptr %atomic-temp.i, align 4
  br label %_ZNKSt13__atomic_baseIjE4loadESt12memory_order.exit

acquire.i:                                        ; preds = %entry, %entry
  %3 = load atomic i32, ptr %this1.i acquire, align 4
  store i32 %3, ptr %atomic-temp.i, align 4
  br label %_ZNKSt13__atomic_baseIjE4loadESt12memory_order.exit

seqcst.i:                                         ; preds = %entry
  %4 = load atomic i32, ptr %this1.i seq_cst, align 4
  store i32 %4, ptr %atomic-temp.i, align 4
  br label %_ZNKSt13__atomic_baseIjE4loadESt12memory_order.exit

_ZNKSt13__atomic_baseIjE4loadESt12memory_order.exit: ; preds = %seqcst.i, %acquire.i, %monotonic.i
  %5 = load i32, ptr %atomic-temp.i, align 4
  store i32 %5, ptr %flags, align 4
  call void @_ZN4node10ResetStdioEv()
  %6 = load i32, ptr %flags, align 4
  %and = and i32 %6, 32
  %tobool = icmp ne i32 %and, 0
  br i1 %tobool, label %if.end, label %if.then

if.then:                                          ; preds = %_ZNKSt13__atomic_baseIjE4loadESt12memory_order.exit
  call void @_ZN4node19ResetSignalHandlersEv()
  br label %if.end

if.end:                                           ; preds = %if.then, %_ZNKSt13__atomic_baseIjE4loadESt12memory_order.exit
  %7 = load i32, ptr %flags, align 4
  %and1 = and i32 %7, 8192
  %tobool2 = icmp ne i32 %and1, 0
  br i1 %tobool2, label %if.end4, label %if.then3

if.then3:                                         ; preds = %if.end
  call void @_ZN5cppgc15ShutdownProcessEv()
  br label %if.end4

if.end4:                                          ; preds = %if.then3, %if.end
  store i8 0, ptr @_ZN4node11per_process14v8_initializedE, align 1
  %8 = load i32, ptr %flags, align 4
  %and5 = and i32 %8, 64
  %tobool6 = icmp ne i32 %and5, 0
  br i1 %tobool6, label %if.end9, label %if.then7

if.then7:                                         ; preds = %if.end4
  %call8 = call noundef zeroext i1 @_ZN2v82V87DisposeEv()
  br label %if.end9

if.end9:                                          ; preds = %if.then7, %if.end4
  %9 = load i32, ptr %flags, align 4
  %and10 = and i32 %9, 128
  %tobool11 = icmp ne i32 %and10, 0
  br i1 %tobool11, label %if.end13, label %if.then12

if.then12:                                        ; preds = %if.end9
  call void @_ZN2v82V815DisposePlatformEv()
  call void @_ZN4node10V8Platform7DisposeEv(ptr noundef nonnull align 8 dereferenceable(48) @_ZN4node11per_process11v8_platformE)
  br label %if.end13

if.end13:                                         ; preds = %if.then12, %if.end9
  ret void
}