; Function Attrs: mustprogress nounwind uwtable
define dso_local void @_ZN4node22TearDownOncePerProcessEv() local_unnamed_addr #4 {
entry:
  %0 = load atomic i32, ptr @_ZN4nodeL18init_process_flagsE.0 seq_cst, align 4
  tail call void @_ZN4node10ResetStdioEv()
  %and = and i32 %0, 32
  %tobool.not = icmp eq i32 %and, 0
  br i1 %tobool.not, label %if.then, label %if.end

if.then:                                          ; preds = %entry
  tail call void @_ZN4node19ResetSignalHandlersEv()
  br label %if.end

if.end:                                           ; preds = %if.then, %entry
  %and1 = and i32 %0, 8192
  %tobool2.not = icmp eq i32 %and1, 0
  br i1 %tobool2.not, label %if.then3, label %if.end4

if.then3:                                         ; preds = %if.end
  tail call void @_ZN5cppgc15ShutdownProcessEv() #23
  br label %if.end4

if.end4:                                          ; preds = %if.then3, %if.end
  store i8 0, ptr @_ZN4node11per_process14v8_initializedE, align 1
  %and5 = and i32 %0, 64
  %tobool6.not = icmp eq i32 %and5, 0
  br i1 %tobool6.not, label %if.then7, label %if.end9

if.then7:                                         ; preds = %if.end4
  %call8 = tail call noundef zeroext i1 @_ZN2v82V87DisposeEv() #23
  br label %if.end9

if.end9:                                          ; preds = %if.then7, %if.end4
  %and10 = and i32 %0, 128
  %tobool11.not = icmp eq i32 %and10, 0
  br i1 %tobool11.not, label %if.then12, label %if.end13

if.then12:                                        ; preds = %if.end9
  tail call void @_ZN2v82V815DisposePlatformEv() #23
  tail call void @_ZN4node10V8Platform7DisposeEv(ptr noundef nonnull align 8 dereferenceable(48) @_ZN4node11per_process11v8_platformE)
  br label %if.end13

if.end13:                                         ; preds = %if.then12, %if.end9
  ret void
}